target datalayout = "e-m:e-p270:32:32-p271:32:32-p272:64:64-i64:64-i128:128-f80:128-n8:16:32:64-S128"
target triple = "x86_64-pc-linux-gnu"

@.str = private unnamed_addr constant [7 x i8] c"key %d\00", align 1
@.str.1 = private unnamed_addr constant [4 x i8] c"OK\0A\00", align 1

; Function Attrs: nounwind uwtable
define dso_local void @hashmap_put(ptr noundef %0, ptr noundef %1, ptr noundef %2) #0 {
  %4 = alloca ptr, align 8
  %5 = alloca ptr, align 8
  %6 = alloca ptr, align 8
  store ptr %0, ptr %4, align 8, !tbaa !7
  store ptr %1, ptr %5, align 8, !tbaa !11
  store ptr %2, ptr %6, align 8, !tbaa !7
  %7 = load ptr, ptr %4, align 8, !tbaa !7
  %8 = load ptr, ptr %5, align 8, !tbaa !11
  %9 = load ptr, ptr %5, align 8, !tbaa !11
  %10 = call i64 @strlen(ptr noundef %9) #8
  %11 = trunc i64 %10 to i32
  %12 = load ptr, ptr %6, align 8, !tbaa !7
  call void @hashmap_put2(ptr noundef %7, ptr noundef %8, i32 noundef %11, ptr noundef %12)
  ret void
}

; Function Attrs: nounwind uwtable
define dso_local void @hashmap_test() #0 {
  %1 = alloca ptr, align 8
  %2 = alloca i32, align 4
  %3 = alloca i32, align 4
  %4 = alloca i32, align 4
  %5 = alloca i32, align 4
  %6 = alloca i32, align 4
  %7 = alloca i32, align 4
  %8 = alloca i32, align 4
  %9 = alloca i32, align 4
  %10 = alloca i32, align 4
  %11 = alloca i32, align 4
  %12 = alloca i32, align 4
  call void @llvm.lifetime.start.p0(i64 8, ptr %1) #9
  %13 = call noalias ptr @calloc(i64 noundef 1, i64 noundef 16) #11
  store ptr %13, ptr %1, align 8, !tbaa !7
  call void @llvm.lifetime.start.p0(i64 4, ptr %2) #9
  store i32 0, ptr %2, align 4, !tbaa !13
  br label %14

14:                                               ; preds = %25, %0
  %15 = load i32, ptr %2, align 4, !tbaa !13
  %16 = icmp slt i32 %15, 5000
  br i1 %16, label %18, label %17

17:                                               ; preds = %14
  call void @llvm.lifetime.end.p0(i64 4, ptr %2) #9
  br label %28

18:                                               ; preds = %14
  %19 = load ptr, ptr %1, align 8, !tbaa !7
  %20 = load i32, ptr %2, align 4, !tbaa !13
  %21 = call ptr (ptr, ...) @format(ptr noundef @.str, i32 noundef %20)
  %22 = load i32, ptr %2, align 4, !tbaa !13
  %23 = sext i32 %22 to i64
  %24 = inttoptr i64 %23 to ptr
  call void @hashmap_put(ptr noundef %19, ptr noundef %21, ptr noundef %24)
  br label %25

25:                                               ; preds = %18
  %26 = load i32, ptr %2, align 4, !tbaa !13
  %27 = add nsw i32 %26, 1
  store i32 %27, ptr %2, align 4, !tbaa !13
  br label %14, !llvm.loop !28

28:                                               ; preds = %17
  call void @llvm.lifetime.start.p0(i64 4, ptr %3) #9
  store i32 1000, ptr %3, align 4, !tbaa !13
  br label %29

29:                                               ; preds = %37, %28
  %30 = load i32, ptr %3, align 4, !tbaa !13
  %31 = icmp slt i32 %30, 2000
  br i1 %31, label %33, label %32

32:                                               ; preds = %29
  call void @llvm.lifetime.end.p0(i64 4, ptr %3) #9
  br label %40

33:                                               ; preds = %29
  %34 = load ptr, ptr %1, align 8, !tbaa !7
  %35 = load i32, ptr %3, align 4, !tbaa !13
  %36 = call ptr (ptr, ...) @format(ptr noundef @.str, i32 noundef %35)
  call void @hashmap_delete(ptr noundef %34, ptr noundef %36)
  br label %37

37:                                               ; preds = %33
  %38 = load i32, ptr %3, align 4, !tbaa !13
  %39 = add nsw i32 %38, 1
  store i32 %39, ptr %3, align 4, !tbaa !13
  br label %29, !llvm.loop !29

40:                                               ; preds = %32
  call void @llvm.lifetime.start.p0(i64 4, ptr %4) #9
  store i32 1500, ptr %4, align 4, !tbaa !13
  br label %41

41:                                               ; preds = %52, %40
  %42 = load i32, ptr %4, align 4, !tbaa !13
  %43 = icmp slt i32 %42, 1600
  br i1 %43, label %45, label %44

44:                                               ; preds = %41
  call void @llvm.lifetime.end.p0(i64 4, ptr %4) #9
  br label %55

45:                                               ; preds = %41
  %46 = load ptr, ptr %1, align 8, !tbaa !7
  %47 = load i32, ptr %4, align 4, !tbaa !13
  %48 = call ptr (ptr, ...) @format(ptr noundef @.str, i32 noundef %47)
  %49 = load i32, ptr %4, align 4, !tbaa !13
  %50 = sext i32 %49 to i64
  %51 = inttoptr i64 %50 to ptr
  call void @hashmap_put(ptr noundef %46, ptr noundef %48, ptr noundef %51)
  br label %52

52:                                               ; preds = %45
  %53 = load i32, ptr %4, align 4, !tbaa !13
  %54 = add nsw i32 %53, 1
  store i32 %54, ptr %4, align 4, !tbaa !13
  br label %41, !llvm.loop !30

55:                                               ; preds = %44
  call void @llvm.lifetime.start.p0(i64 4, ptr %5) #9
  store i32 6000, ptr %5, align 4, !tbaa !13
  br label %56

56:                                               ; preds = %67, %55
  %57 = load i32, ptr %5, align 4, !tbaa !13
  %58 = icmp slt i32 %57, 7000
  br i1 %58, label %60, label %59

59:                                               ; preds = %56
  call void @llvm.lifetime.end.p0(i64 4, ptr %5) #9
  br label %70

60:                                               ; preds = %56
  %61 = load ptr, ptr %1, align 8, !tbaa !7
  %62 = load i32, ptr %5, align 4, !tbaa !13
  %63 = call ptr (ptr, ...) @format(ptr noundef @.str, i32 noundef %62)
  %64 = load i32, ptr %5, align 4, !tbaa !13
  %65 = sext i32 %64 to i64
  %66 = inttoptr i64 %65 to ptr
  call void @hashmap_put(ptr noundef %61, ptr noundef %63, ptr noundef %66)
  br label %67

67:                                               ; preds = %60
  %68 = load i32, ptr %5, align 4, !tbaa !13
  %69 = add nsw i32 %68, 1
  store i32 %69, ptr %5, align 4, !tbaa !13
  br label %56, !llvm.loop !31

70:                                               ; preds = %59
  call void @llvm.lifetime.start.p0(i64 4, ptr %6) #9
  store i32 0, ptr %6, align 4, !tbaa !13
  br label %71

71:                                               ; preds = %76, %70
  %72 = load i32, ptr %6, align 4, !tbaa !13
  %73 = icmp slt i32 %72, 1000
  br i1 %73, label %75, label %74

74:                                               ; preds = %71
  call void @llvm.lifetime.end.p0(i64 4, ptr %6) #9
  br label %79

75:                                               ; preds = %71
  br label %76

76:                                               ; preds = %75
  %77 = load i32, ptr %6, align 4, !tbaa !13
  %78 = add nsw i32 %77, 1
  store i32 %78, ptr %6, align 4, !tbaa !13
  br label %71, !llvm.loop !32

79:                                               ; preds = %74
  call void @llvm.lifetime.start.p0(i64 4, ptr %7) #9
  store i32 1000, ptr %7, align 4, !tbaa !13
  br label %80

80:                                               ; preds = %85, %79
  %81 = load i32, ptr %7, align 4, !tbaa !13
  %82 = icmp slt i32 %81, 1500
  br i1 %82, label %84, label %83

83:                                               ; preds = %80
  call void @llvm.lifetime.end.p0(i64 4, ptr %7) #9
  br label %88

84:                                               ; preds = %80
  br label %85

85:                                               ; preds = %84
  %86 = load i32, ptr %7, align 4, !tbaa !13
  %87 = add nsw i32 %86, 1
  store i32 %87, ptr %7, align 4, !tbaa !13
  br label %80, !llvm.loop !33

88:                                               ; preds = %83
  call void @llvm.lifetime.start.p0(i64 4, ptr %8) #9
  store i32 1500, ptr %8, align 4, !tbaa !13
  br label %89

89:                                               ; preds = %94, %88
  %90 = load i32, ptr %8, align 4, !tbaa !13
  %91 = icmp slt i32 %90, 1600
  br i1 %91, label %93, label %92

92:                                               ; preds = %89
  call void @llvm.lifetime.end.p0(i64 4, ptr %8) #9
  br label %97

93:                                               ; preds = %89
  br label %94

94:                                               ; preds = %93
  %95 = load i32, ptr %8, align 4, !tbaa !13
  %96 = add nsw i32 %95, 1
  store i32 %96, ptr %8, align 4, !tbaa !13
  br label %89, !llvm.loop !34

97:                                               ; preds = %92
  call void @llvm.lifetime.start.p0(i64 4, ptr %9) #9
  store i32 1600, ptr %9, align 4, !tbaa !13
  br label %98

98:                                               ; preds = %103, %97
  %99 = load i32, ptr %9, align 4, !tbaa !13
  %100 = icmp slt i32 %99, 2000
  br i1 %100, label %102, label %101

101:                                              ; preds = %98
  call void @llvm.lifetime.end.p0(i64 4, ptr %9) #9
  br label %106

102:                                              ; preds = %98
  br label %103

103:                                              ; preds = %102
  %104 = load i32, ptr %9, align 4, !tbaa !13
  %105 = add nsw i32 %104, 1
  store i32 %105, ptr %9, align 4, !tbaa !13
  br label %98, !llvm.loop !35

106:                                              ; preds = %101
  call void @llvm.lifetime.start.p0(i64 4, ptr %10) #9
  store i32 2000, ptr %10, align 4, !tbaa !13
  br label %107

107:                                              ; preds = %112, %106
  %108 = load i32, ptr %10, align 4, !tbaa !13
  %109 = icmp slt i32 %108, 5000
  br i1 %109, label %111, label %110

110:                                              ; preds = %107
  call void @llvm.lifetime.end.p0(i64 4, ptr %10) #9
  br label %115

111:                                              ; preds = %107
  br label %112

112:                                              ; preds = %111
  %113 = load i32, ptr %10, align 4, !tbaa !13
  %114 = add nsw i32 %113, 1
  store i32 %114, ptr %10, align 4, !tbaa !13
  br label %107, !llvm.loop !36

115:                                              ; preds = %110
  call void @llvm.lifetime.start.p0(i64 4, ptr %11) #9
  store i32 5000, ptr %11, align 4, !tbaa !13
  br label %116

116:                                              ; preds = %121, %115
  %117 = load i32, ptr %11, align 4, !tbaa !13
  %118 = icmp slt i32 %117, 6000
  br i1 %118, label %120, label %119

119:                                              ; preds = %116
  call void @llvm.lifetime.end.p0(i64 4, ptr %11) #9
  br label %124

120:                                              ; preds = %116
  br label %121

121:                                              ; preds = %120
  %122 = load i32, ptr %11, align 4, !tbaa !13
  %123 = add nsw i32 %122, 1
  store i32 %123, ptr %11, align 4, !tbaa !13
  br label %116, !llvm.loop !37

124:                                              ; preds = %119
  call void @llvm.lifetime.start.p0(i64 4, ptr %12) #9
  store i32 6000, ptr %12, align 4, !tbaa !13
  br label %125

125:                                              ; preds = %136, %124
  %126 = load i32, ptr %12, align 4, !tbaa !13
  %127 = icmp slt i32 %126, 7000
  br i1 %127, label %129, label %128

128:                                              ; preds = %125
  call void @llvm.lifetime.end.p0(i64 4, ptr %12) #9
  br label %139

129:                                              ; preds = %125
  %130 = load ptr, ptr %1, align 8, !tbaa !7
  %131 = load i32, ptr %12, align 4, !tbaa !13
  %132 = call ptr (ptr, ...) @format(ptr noundef @.str, i32 noundef %131)
  %133 = load i32, ptr %12, align 4, !tbaa !13
  %134 = sext i32 %133 to i64
  %135 = inttoptr i64 %134 to ptr
  call void @hashmap_put(ptr noundef %130, ptr noundef %132, ptr noundef %135)
  br label %136

136:                                              ; preds = %129
  %137 = load i32, ptr %12, align 4, !tbaa !13
  %138 = add nsw i32 %137, 1
  store i32 %138, ptr %12, align 4, !tbaa !13
  br label %125, !llvm.loop !38

139:                                              ; preds = %128
  %140 = call i32 (ptr, ...) @printf(ptr noundef @.str.1)
  call void @llvm.lifetime.end.p0(i64 8, ptr %1) #9
  ret void
}