; Function Attrs: nounwind uwtable
define dso_local void @hashmap_test() local_unnamed_addr #0 {
  %1 = tail call noalias dereferenceable_or_null(16) ptr @calloc(i64 noundef 1, i64 noundef 16) #11
  br label %2

2:                                                ; preds = %0, %2
  %indvars.iv = phi i64 [ 0, %0 ], [ %indvars.iv.next, %2 ]
  %3 = trunc nuw nsw i64 %indvars.iv to i32
  %4 = tail call ptr (ptr, ...) @format(ptr noundef nonnull @.str, i32 noundef %3) #12
  %5 = inttoptr i64 %indvars.iv to ptr
  %6 = tail call i64 @strlen(ptr noundef nonnull dereferenceable(1) %4) #9
  %7 = trunc i64 %6 to i32
  tail call void @hashmap_put2(ptr noundef %1, ptr noundef nonnull %4, i32 noundef %7, ptr noundef %5)
  %indvars.iv.next = add nuw nsw i64 %indvars.iv, 1
  %exitcond.not = icmp eq i64 %indvars.iv.next, 5000
  br i1 %exitcond.not, label %.preheader53, label %2, !llvm.loop !31

.preheader53:                                     ; preds = %2, %.preheader53
  %.04355 = phi i32 [ %9, %.preheader53 ], [ 1000, %2 ]
  %8 = tail call ptr (ptr, ...) @format(ptr noundef nonnull @.str, i32 noundef %.04355) #12
  tail call void @hashmap_delete(ptr noundef %1, ptr noundef %8)
  %9 = add nuw nsw i32 %.04355, 1
  %exitcond60.not = icmp eq i32 %9, 2000
  br i1 %exitcond60.not, label %.preheader52, label %.preheader53, !llvm.loop !32

.preheader52:                                     ; preds = %.preheader53, %.preheader52
  %indvars.iv61 = phi i64 [ %indvars.iv.next62, %.preheader52 ], [ 1500, %.preheader53 ]
  %10 = trunc nuw nsw i64 %indvars.iv61 to i32
  %11 = tail call ptr (ptr, ...) @format(ptr noundef nonnull @.str, i32 noundef %10) #12
  %12 = inttoptr i64 %indvars.iv61 to ptr
  %13 = tail call i64 @strlen(ptr noundef nonnull dereferenceable(1) %11) #9
  %14 = trunc i64 %13 to i32
  tail call void @hashmap_put2(ptr noundef %1, ptr noundef nonnull %11, i32 noundef %14, ptr noundef nonnull %12)
  %indvars.iv.next62 = add nuw nsw i64 %indvars.iv61, 1
  %exitcond64.not = icmp eq i64 %indvars.iv.next62, 1600
  br i1 %exitcond64.not, label %.preheader51, label %.preheader52, !llvm.loop !33

.preheader51:                                     ; preds = %.preheader52, %.preheader51
  %indvars.iv65 = phi i64 [ %indvars.iv.next66, %.preheader51 ], [ 6000, %.preheader52 ]
  %15 = trunc nuw nsw i64 %indvars.iv65 to i32
  %16 = tail call ptr (ptr, ...) @format(ptr noundef nonnull @.str, i32 noundef %15) #12
  %17 = inttoptr i64 %indvars.iv65 to ptr
  %18 = tail call i64 @strlen(ptr noundef nonnull dereferenceable(1) %16) #9
  %19 = trunc i64 %18 to i32
  tail call void @hashmap_put2(ptr noundef %1, ptr noundef nonnull %16, i32 noundef %19, ptr noundef nonnull %17)
  %indvars.iv.next66 = add nuw nsw i64 %indvars.iv65, 1
  %exitcond68.not = icmp eq i64 %indvars.iv.next66, 7000
  br i1 %exitcond68.not, label %.preheader, label %.preheader51, !llvm.loop !34

20:                                               ; preds = %.preheader
  %puts = tail call i32 @puts(ptr nonnull dereferenceable(1) @str)
  ret void

.preheader:                                       ; preds = %.preheader51, %.preheader
  %indvars.iv69 = phi i64 [ %indvars.iv.next70, %.preheader ], [ 6000, %.preheader51 ]
  %21 = trunc nuw nsw i64 %indvars.iv69 to i32
  %22 = tail call ptr (ptr, ...) @format(ptr noundef nonnull @.str, i32 noundef %21) #12
  %23 = inttoptr i64 %indvars.iv69 to ptr
  %24 = tail call i64 @strlen(ptr noundef nonnull dereferenceable(1) %22) #9
  %25 = trunc i64 %24 to i32
  tail call void @hashmap_put2(ptr noundef %1, ptr noundef nonnull %22, i32 noundef %25, ptr noundef nonnull %23)
  %indvars.iv.next70 = add nuw nsw i64 %indvars.iv69, 1
  %exitcond72.not = icmp eq i64 %indvars.iv.next70, 7000
  br i1 %exitcond72.not, label %20, label %.preheader, !llvm.loop !35
}